; Function Attrs: mustprogress uwtable
define hidden noundef nonnull align 8 dereferenceable(136) ptr @_ZN7datalog21bound_relation_plugin3getERKNS_13relation_baseE(ptr noundef nonnull readonly align 8 dereferenceable(28) %0) local_unnamed_addr #3 align 2 {
  %2 = tail call ptr @__dynamic_cast(ptr nonnull %0, ptr nonnull @_ZTIN7datalog13relation_baseE, ptr nonnull @_ZTIN7datalog14bound_relationE, i64 0) #24
  %3 = icmp eq ptr %2, null
  br i1 %3, label %4, label %5

4:                                                ; preds = %1
  tail call void @__cxa_bad_cast() #25
  unreachable

5:                                                ; preds = %1
  ret ptr %2
}